Certificate:
    Data:
        Version: 3 (0x2)
        Serial Number:
            a4:69:55:0c:a6:60:52:4f
    Signature Algorithm: sha256WithRSAEncryption
        Issuer: CN=QUIC Server Root CA
        Validity
            Not Before: Jul 26 14:48:03 2017 GMT
            Not After : Jul 29 14:48:03 2017 GMT
        Subject: CN=QUIC Server Root CA
        Subject Public Key Info:
            Public Key Algorithm: rsaEncryption
                Public-Key: (2048 bit)
                Modulus:
                    00:d9:6b:d8:09:52:f7:41:8c:7b:ef:a4:29:35:91:
                    55:7f:88:a0:4d:63:3d:6a:c5:f9:28:a1:58:5b:f4:
                    59:8c:6c:70:85:82:11:8d:89:72:ea:1d:14:3c:54:
                    ff:0d:59:9e:b8:41:55:dd:e3:ba:74:05:18:d4:a8:
                    1c:69:cc:3e:a0:20:33:93:8d:89:26:c7:e9:2c:b4:
                    7f:09:4c:31:ea:ce:5a:d6:61:d2:45:19:b6:fc:e9:
                    9e:5f:47:0c:f4:8a:51:6f:4a:b2:54:d4:91:4d:a4:
                    a7:3a:8a:fb:6b:79:c7:cd:9d:bc:3e:20:0b:f3:ba:
                    bc:4a:69:28:59:f7:82:63:b2:89:b8:a0:a5:46:ec:
                    86:e1:01:47:71:ce:9d:b3:d4:7c:2b:b8:58:0b:2c:
                    b2:14:9a:08:0f:37:2e:5f:59:3d:5e:62:49:d2:95:
                    81:d1:d1:e0:09:0c:69:22:9e:15:62:09:92:9f:1c:
                    11:37:ed:bf:3c:0d:7a:a3:ac:1f:f8:17:5f:cd:cf:
                    26:98:de:8d:b8:57:47:77:87:68:d8:c9:f0:4c:d4:
                    d6:a6:b7:b3:80:c7:ff:85:f4:fa:e9:9a:b8:fd:11:
                    06:97:02:9b:cf:9a:e0:aa:c2:a7:9a:bf:01:46:b8:
                    70:b8:8e:a7:db:ed:1f:b5:09:1a:bf:b1:a4:c2:a3:
                    02:cb
                Exponent: 65537 (0x10001)
        X509v3 extensions:
            X509v3 Basic Constraints: critical
                CA:TRUE
            X509v3 Subject Key Identifier: 
                F2:E4:B0:16:C2:3D:1E:64:F8:4B:A6:CA:3C:6D:09:14:64:0C:61:0C
            X509v3 Key Usage: critical
                Certificate Sign, CRL Sign
    Signature Algorithm: sha256WithRSAEncryption
         53:39:01:81:40:4b:65:0a:25:25:7c:60:ca:1c:3c:dc:7f:0a:
         e4:c9:23:4d:d6:27:29:fa:a5:3b:4d:64:cb:96:b1:f5:fc:99:
         b1:b8:fd:78:42:ed:dc:13:a1:e6:6d:f6:80:61:1b:37:aa:d7:
         dd:24:8b:92:b7:3f:5a:a4:f2:e0:ad:c3:8d:4f:8f:55:d8:b3:
         77:a5:59:51:0c:d5:2b:7c:52:f2:0a:c7:b5:b4:0b:11:e0:c3:
         12:11:5b:d5:50:55:6a:87:97:84:d6:eb:45:ee:6d:d1:a9:07:
         58:d8:16:0e:0e:6e:68:9c:32:65:2c:6d:7a:78:00:8f:35:d2:
         6e:a1:59:a4:cd:0b:6e:48:8c:34:af:ec:ea:67:86:a0:0c:ce:
         df:59:bf:9f:97:55:f7:d2:5c:bd:e0:cb:b8:81:7e:2d:2b:d1:
         07:72:4a:87:57:b3:48:08:60:30:fa:88:7e:88:25:be:80:31:
         28:61:ea:35:27:0f:a3:4c:28:04:88:1f:6e:24:99:ca:63:ed:
         4e:89:de:46:02:7f:8e:63:64:d5:f2:f8:18:16:5a:a9:16:2b:
         c0:4a:5a:26:12:f7:38:21:18:99:36:e8:fa:2b:5c:21:f0:63:
         12:65:15:15:a4:59:ad:cc:5e:1e:9b:3f:8a:af:81:02:83:dc:
         92:22:fd:b2
-----BEGIN CERTIFICATE-----
MIIDATCCAemgAwIBAgIJAKRpVQymYFJPMA0GCSqGSIb3DQEBCwUAMB4xHDAaBgNV
BAMME1FVSUMgU2VydmVyIFJvb3QgQ0EwHhcNMTcwNzI2MTQ0ODAzWhcNMTcwNzI5
MTQ0ODAzWjAeMRwwGgYDVQQDDBNRVUlDIFNlcnZlciBSb290IENBMIIBIjANBgkq
hkiG9w0BAQEFAAOCAQ8AMIIBCgKCAQEA2WvYCVL3QYx776QpNZFVf4igTWM9asX5
KKFYW/RZjGxwhYIRjYly6h0UPFT/DVmeuEFV3eO6dAUY1Kgcacw+oCAzk42JJsfp
LLR/CUwx6s5a1mHSRRm2/OmeX0cM9IpRb0qyVNSRTaSnOor7a3nHzZ28PiAL87q8
SmkoWfeCY7KJuKClRuyG4QFHcc6ds9R8K7hYCyyyFJoIDzcuX1k9XmJJ0pWB0dHg
CQxpIp4VYgmSnxwRN+2/PA16o6wf+Bdfzc8mmN6NuFdHd4do2MnwTNTWprezgMf/
hfT66Zq4/REGlwKbz5rgqsKnmr8BRrhwuI6n2+0ftQkav7GkwqMCywIDAQABo0Iw
QDAPBgNVHRMBAf8EBTADAQH/MB0GA1UdDgQWBBTy5LAWwj0eZPhLpso8bQkUZAxh
DDAOBgNVHQ8BAf8EBAMCAQYwDQYJKoZIhvcNAQELBQADggEBAFM5AYFAS2UKJSV8
YMocPNx/CuTJI03WJyn6pTtNZMuWsfX8mbG4/XhC7dwToeZt9oBhGzeq190ki5K3
P1qk8uCtw41Pj1XYs3elWVEM1St8UvIKx7W0CxHgwxIRW9VQVWqHl4TW60XubdGp
B1jYFg4ObmicMmUsbXp4AI810m6hWaTNC25IjDSv7OpnhqAMzt9Zv5+XVffSXL3g
y7iBfi0r0QdySodXs0gIYDD6iH6IJb6AMShh6jUnD6NMKASIH24kmcpj7U6J3kYC
f45jZNXy+BgWWqkWK8BKWiYS9zghGJk26PorXCHwYxJlFRWkWa3MXh6bP4qvgQKD
3JIi/bI=
-----END CERTIFICATE-----
